target datalayout = "e-m:e-p270:32:32-p271:32:32-p272:64:64-i64:64-i128:128-f80:128-n8:16:32:64-S128"
target triple = "x86_64-pc-linux-gnu"

%"class.Assimp::Q3BSPFileParser" = type { i64, %"class.std::vector", ptr, ptr }
%"class.std::vector" = type { %"struct.std::_Vector_base" }
%"struct.std::_Vector_base" = type { %"struct.std::_Vector_base<char, std::allocator<char>>::_Vector_impl" }
%"struct.std::_Vector_base<char, std::allocator<char>>::_Vector_impl" = type { %"struct.std::_Vector_base<char, std::allocator<char>>::_Vector_impl_data" }
%"struct.std::_Vector_base<char, std::allocator<char>>::_Vector_impl_data" = type { ptr, ptr, ptr }
%"struct.Assimp::Q3BSP::sQ3BSPHeader" = type { [4 x i8], i32 }

; Function Attrs: mustprogress nounwind uwtable
define linkonce_odr noundef nonnull align 1 dereferenceable(1) ptr @_ZNSt6vectorIcSaIcEEixEm(ptr noundef nonnull align 8 dereferenceable(24) %0, i64 noundef %1) #2 comdat align 2 {
  %3 = alloca ptr, align 8
  %4 = alloca i64, align 8
  store ptr %0, ptr %3, align 8
  store i64 %1, ptr %4, align 8
  %5 = load ptr, ptr %3, align 8
  %6 = getelementptr inbounds nuw %"struct.std::_Vector_base", ptr %5, i32 0, i32 0
  %7 = getelementptr inbounds nuw %"struct.std::_Vector_base<char, std::allocator<char>>::_Vector_impl_data", ptr %6, i32 0, i32 0
  %8 = load ptr, ptr %7, align 8
  %9 = load i64, ptr %4, align 8
  %10 = getelementptr inbounds nuw i8, ptr %8, i64 %9
  ret ptr %10
}

; Function Attrs: mustprogress nounwind uwtable
define hidden noundef zeroext i1 @_ZN6Assimp15Q3BSPFileParser14validateFormatEv(ptr noundef nonnull align 8 dereferenceable(48) %0) #2 align 2 {
  %2 = alloca i1, align 1
  %3 = alloca ptr, align 8
  %4 = alloca ptr, align 8
  %5 = alloca i32, align 4
  store ptr %0, ptr %3, align 8
  %6 = load ptr, ptr %3, align 8
  call void @llvm.lifetime.start.p0(i64 8, ptr %4) #14
  %7 = getelementptr inbounds nuw %"class.Assimp::Q3BSPFileParser", ptr %6, i32 0, i32 1
  %8 = call noundef nonnull align 1 dereferenceable(1) ptr @_ZNSt6vectorIcSaIcEEixEm(ptr noundef nonnull align 8 dereferenceable(24) %7, i64 noundef 0) #14
  store ptr %8, ptr %4, align 8
  %9 = getelementptr inbounds nuw %"class.Assimp::Q3BSPFileParser", ptr %6, i32 0, i32 0
  %10 = load i64, ptr %9, align 8
  %11 = add i64 %10, 8
  store i64 %11, ptr %9, align 8
  %12 = load ptr, ptr %4, align 8
  %13 = getelementptr inbounds nuw %"struct.Assimp::Q3BSP::sQ3BSPHeader", ptr %12, i32 0, i32 0
  %14 = getelementptr inbounds [4 x i8], ptr %13, i64 0, i64 0
  %15 = load i8, ptr %14, align 4
  %16 = sext i8 %15 to i32
  %17 = icmp ne i32 %16, 73
  br i1 %17, label %39, label %18

18:                                               ; preds = %1
  %19 = load ptr, ptr %4, align 8
  %20 = getelementptr inbounds nuw %"struct.Assimp::Q3BSP::sQ3BSPHeader", ptr %19, i32 0, i32 0
  %21 = getelementptr inbounds [4 x i8], ptr %20, i64 0, i64 1
  %22 = load i8, ptr %21, align 1
  %23 = sext i8 %22 to i32
  %24 = icmp ne i32 %23, 66
  br i1 %24, label %39, label %25

25:                                               ; preds = %18
  %26 = load ptr, ptr %4, align 8
  %27 = getelementptr inbounds nuw %"struct.Assimp::Q3BSP::sQ3BSPHeader", ptr %26, i32 0, i32 0
  %28 = getelementptr inbounds [4 x i8], ptr %27, i64 0, i64 2
  %29 = load i8, ptr %28, align 2
  %30 = sext i8 %29 to i32
  %31 = icmp ne i32 %30, 83
  br i1 %31, label %39, label %32

32:                                               ; preds = %25
  %33 = load ptr, ptr %4, align 8
  %34 = getelementptr inbounds nuw %"struct.Assimp::Q3BSP::sQ3BSPHeader", ptr %33, i32 0, i32 0
  %35 = getelementptr inbounds [4 x i8], ptr %34, i64 0, i64 3
  %36 = load i8, ptr %35, align 1
  %37 = sext i8 %36 to i32
  %38 = icmp ne i32 %37, 80
  br i1 %38, label %39, label %40

39:                                               ; preds = %32, %25, %18, %1
  store i1 false, ptr %2, align 1
  store i32 1, ptr %5, align 4
  br label %41

40:                                               ; preds = %32
  store i1 true, ptr %2, align 1
  store i32 1, ptr %5, align 4
  br label %41

41:                                               ; preds = %40, %39
  call void @llvm.lifetime.end.p0(i64 8, ptr %4) #14
  %42 = load i1, ptr %2, align 1
  ret i1 %42
}