; Function Attrs: mustprogress nofree norecurse nosync nounwind willreturn memory(read, argmem: readwrite, inaccessiblemem: none) uwtable
define hidden noundef zeroext i1 @_ZN6Assimp15Q3BSPFileParser14validateFormatEv(ptr noundef nonnull align 8 captures(none) dereferenceable(48) %0) local_unnamed_addr #6 align 2 {
  %2 = getelementptr inbounds nuw i8, ptr %0, i64 8
  %3 = load ptr, ptr %2, align 8
  %4 = load i64, ptr %0, align 8
  %5 = add i64 %4, 8
  store i64 %5, ptr %0, align 8
  %6 = load i8, ptr %3, align 4
  %.not = icmp eq i8 %6, 73
  br i1 %.not, label %7, label %16

7:                                                ; preds = %1
  %8 = getelementptr inbounds nuw i8, ptr %3, i64 1
  %9 = load i8, ptr %8, align 1
  %.not6 = icmp eq i8 %9, 66
  br i1 %.not6, label %10, label %16

10:                                               ; preds = %7
  %11 = getelementptr inbounds nuw i8, ptr %3, i64 2
  %12 = load i8, ptr %11, align 2
  %.not7 = icmp eq i8 %12, 83
  br i1 %.not7, label %13, label %16

13:                                               ; preds = %10
  %14 = getelementptr inbounds nuw i8, ptr %3, i64 3
  %15 = load i8, ptr %14, align 1
  %.not8 = icmp eq i8 %15, 80
  br label %16

16:                                               ; preds = %13, %1, %7, %10
  %.0 = phi i1 [ false, %10 ], [ false, %7 ], [ false, %1 ], [ %.not8, %13 ]
  ret i1 %.0
}